; Function Attrs: mustprogress uwtable
define void @_ZN10MainWindow22switchCurrentContainerEP13QMdiSubWindow(ptr noundef nonnull align 8 dereferenceable(1376) %0, ptr noundef readnone %1) local_unnamed_addr #9 align 2 {
  %3 = icmp eq ptr %1, null
  br i1 %3, label %4, label %8

4:                                                ; preds = %2
  %5 = getelementptr inbounds i8, ptr %0, i64 296
  %6 = load ptr, ptr %5, align 8
  %.not7 = icmp eq ptr %6, null
  br i1 %.not7, label %23, label %7

7:                                                ; preds = %4
  tail call void @_ZN24MLRenderingGlobalToolbar5resetEv(ptr noundef nonnull align 8 dereferenceable(96) %6)
  br label %23

8:                                                ; preds = %2
  %9 = getelementptr inbounds i8, ptr %0, i64 152
  %10 = load ptr, ptr %9, align 8
  %11 = tail call noundef ptr @_ZNK8QMdiArea16currentSubWindowEv(ptr noundef nonnull align 8 dereferenceable(48) %10)
  %.not = icmp eq ptr %11, null
  br i1 %.not, label %19, label %12

12:                                               ; preds = %8
  %13 = load ptr, ptr %9, align 8
  %14 = tail call noundef ptr @_ZNK8QMdiArea16currentSubWindowEv(ptr noundef nonnull align 8 dereferenceable(48) %13)
  %15 = tail call noundef ptr @_ZNK13QMdiSubWindow6widgetEv(ptr noundef nonnull align 8 dereferenceable(48) %14)
  %16 = tail call noundef ptr @_ZNK11QMetaObject4castEP7QObject(ptr noundef nonnull align 8 dereferenceable(48) @_ZN21MultiViewer_Container16staticMetaObjectE, ptr noundef %15)
  %.not5 = icmp eq ptr %16, null
  br i1 %.not5, label %19, label %17

17:                                               ; preds = %12
  %18 = getelementptr inbounds i8, ptr %0, i64 1368
  store ptr %16, ptr %18, align 8
  br label %19

19:                                               ; preds = %12, %17, %8
  %20 = getelementptr inbounds i8, ptr %0, i64 1368
  %21 = load ptr, ptr %20, align 8
  %.not6 = icmp eq ptr %21, null
  br i1 %.not6, label %23, label %22

22:                                               ; preds = %19
  tail call void @_ZN10MainWindow17updateLayerDialogEv(ptr noundef nonnull align 8 dereferenceable(1376) %0)
  tail call void @_ZN10MainWindow11updateMenusEv(ptr noundef nonnull align 8 dereferenceable(1376) %0)
  br label %23

23:                                               ; preds = %4, %7, %22, %19
  ret void
}